(dp0
S'METTS MARK'
p1
(dp2
S'to_messages'
p3
I807
sS'deferral_payments'
p4
S'NaN'
p5
sS'percent_from_poi'
p6
F0.04709
sS'expenses'
p7
I94299
sS'poi'
p8
I00
sS'deferred_income'
p9
g5
sS'email_address'
p10
S'mark.metts@enron.com'
p11
sS'long_term_incentive'
p12
g5
sS'restricted_stock_deferred'
p13
g5
sS'shared_receipt_with_poi'
p14
F0.12715
sS'loan_advances'
p15
g5
sS'from_messages'
p16
I29
sS'other'
p17
I1740
sS'director_fees'
p18
g5
sS'bonus'
p19
F0.08571
sS'percent_to_poi'
p20
F0.03448
sS'total_stock_value'
p21
F0.01191
sS'from_poi_to_this_person'
p22
I38
sS'from_this_person_to_poi'
p23
I1
sS'restricted_stock'
p24
I585062
sS'salary'
p25
F0.32917
sS'total_payments'
p26
I1061827
sS'exercised_stock_options'
p27
F0.0
ssS'BAXTER JOHN C'
p28
(dp29
g3
g5
sg4
I1295738
sg6
F0.0
sg7
I11200
sg8
I00
sg9
I-1386055
sg10
g5
sg12
I1586055
sg13
g5
sg14
F0.0
sg15
g5
sg16
g5
sg17
I2660303
sg18
g5
sg19
F0.17143
sg20
F0.0
sg21
F0.21632
sg22
g5
sg23
g5
sg24
I3942714
sg25
F0.24036
sg26
I5634343
sg27
F0.19449
ssS'ELLIOTT STEVEN'
p30
(dp31
g3
g5
sg4
g5
sg6
F0.0
sg7
I78552
sg8
I00
sg9
I-400729
sg10
S'steven.elliott@enron.com'
p32
sg12
g5
sg13
g5
sg14
F0.0
sg15
g5
sg16
g5
sg17
I12961
sg18
g5
sg19
F0.05
sg20
F0.0
sg21
F0.136
sg22
g5
sg23
g5
sg24
I1788391
sg25
F0.15383
sg26
I211725
sg27
F0.14237
ssS'CORDES WILLIAM R'
p33
(dp34
g3
I764
sg4
g5
sg6
F0.01309
sg7
g5
sg8
I00
sg9
g5
sg10
S'bill.cordes@enron.com'
p35
sg12
g5
sg13
g5
sg14
F0.01051
sg15
g5
sg16
I12
sg17
g5
sg18
g5
sg19
F0.0
sg20
F0.0
sg21
F0.02114
sg22
I10
sg23
I0
sg24
I386335
sg25
F0.0
sg26
g5
sg27
F0.01898
ssS'HANNON KEVIN P'
p36
(dp37
g3
I1045
sg4
g5
sg6
F0.03062
sg7
I34039
sg8
I01
sg9
I-3117011
sg10
S'kevin.hannon@enron.com'
p38
sg12
I1617011
sg13
g5
sg14
F0.18747
sg15
g5
sg16
I32
sg17
I11350
sg18
g5
sg19
F0.21429
sg20
F0.65625
sg21
F0.13014
sg22
I32
sg23
I21
sg24
I853064
sg25
F0.21893
sg26
I288682
sg27
F0.16123
ssS'MORDAUNT KRISTINA M'
p39
(dp40
g3
g5
sg4
g5
sg6
F0.0
sg7
I35018
sg8
I00
sg9
g5
sg10
S'kristina.mordaunt@enron.com'
p41
sg12
g5
sg13
g5
sg14
F0.0
sg15
g5
sg16
g5
sg17
I1411
sg18
g5
sg19
F0.04643
sg20
F0.0
sg21
F0.00425
sg22
g5
sg23
g5
sg24
I208510
sg25
F0.24035
sg26
I628522
sg27
F0.0
ssS'MEYER ROCKFORD G'
p42
(dp43
g3
I232
sg4
I1848227
sg6
F0.0
sg7
g5
sg8
I00
sg9
g5
sg10
S'rockford.meyer@enron.com'
p44
sg12
g5
sg13
g5
sg14
F0.00398
sg15
g5
sg16
I28
sg17
g5
sg18
g5
sg19
F0.0
sg20
F0.0
sg21
F0.01946
sg22
I0
sg23
I0
sg24
I462384
sg25
F0.0
sg26
I1848227
sg27
F0.01437
ssS'MCMAHON JEFFREY'
p45
(dp46
g3
I2355
sg4
g5
sg6
F0.02463
sg7
I137108
sg8
I00
sg9
g5
sg10
S'jeffrey.mcmahon@enron.com'
p47
sg12
I694862
sg13
g5
sg14
F0.40355
sg15
g5
sg16
I48
sg17
I297353
sg18
g5
sg19
F0.37143
sg20
F0.54167
sg21
F0.03386
sg22
I58
sg23
I26
sg24
I558801
sg25
F0.33336
sg26
I4099771
sg27
F0.03214
ssS'HORTON STANLEY C'
p48
(dp49
g3
I2350
sg4
I3131860
sg6
F0.01872
sg7
g5
sg8
I00
sg9
g5
sg10
S'stanley.horton@enron.com'
p50
sg12
g5
sg13
g5
sg14
F0.19453
sg15
g5
sg16
I1073
sg17
g5
sg18
g5
sg19
F0.0
sg20
F0.01398
sg21
F0.14776
sg22
I44
sg23
I15
sg24
I2046079
sg25
F0.0
sg26
I3131860
sg27
F0.1517
ssS'PIPER GREGORY F'
p51
(dp52
g3
I1238
sg4
I1130036
sg6
F0.04927
sg7
I43057
sg8
I00
sg9
I-33333
sg10
S'greg.piper@enron.com'
p53
sg12
g5
sg13
I-409554
sg14
F0.1344
sg15
g5
sg16
I222
sg17
I778
sg18
g5
sg19
F0.05714
sg20
F0.21622
sg21
F0.01792
sg22
I61
sg23
I48
sg24
I409554
sg25
F0.17736
sg26
I1737629
sg27
F0.02563
ssS'UMANOFF ADAM S'
p54
(dp55
g3
I111
sg4
g5
sg6
F0.10811
sg7
I53122
sg8
I00
sg9
g5
sg10
S'adam.umanoff@enron.com'
p56
sg12
g5
sg13
g5
sg14
F0.00743
sg15
g5
sg16
I18
sg17
g5
sg18
g5
sg19
F0.11268
sg20
F0.0
sg21
F0.0
sg22
I12
sg23
I0
sg24
g5
sg25
F0.2597
sg26
I1130461
sg27
F0.0
ssS'BLACHMAN JEREMY M'
p57
(dp58
g3
I2475
sg4
g5
sg6
F0.0101
sg7
I84208
sg8
I00
sg9
g5
sg10
S'jeremy.blachman@enron.com'
p59
sg12
I831809
sg13
g5
sg14
F0.4213
sg15
g5
sg16
I14
sg17
I272
sg18
g5
sg19
F0.12143
sg20
F0.14286
sg21
F0.01943
sg22
I25
sg23
I2
sg24
I189041
sg25
F0.22366
sg26
I2014835
sg27
F0.02228
ssS'SUNDE MARTIN'
p60
(dp61
g3
I2647
sg4
g5
sg6
F0.01398
sg7
g5
sg8
I00
sg9
g5
sg10
S'marty.sunde@enron.com'
p62
sg12
I476451
sg13
g5
sg14
F0.46459
sg15
g5
sg16
I38
sg17
I111122
sg18
g5
sg19
F0.1
sg20
F0.34211
sg21
F0.01423
sg22
I37
sg23
I13
sg24
I698920
sg25
F0.23171
sg26
I1545059
sg27
F0.0
ssS'GIBBS DANA R'
p63
(dp64
g3
I169
sg4
I504610
sg6
F0.0
sg7
g5
sg8
I00
sg9
g5
sg10
S'dana.gibbs@enron.com'
p65
sg12
I461912
sg13
g5
sg14
F0.00417
sg15
g5
sg16
I12
sg17
g5
sg18
g5
sg19
F0.0
sg20
F0.0
sg21
F0.04517
sg22
I0
sg23
I0
sg24
g5
sg25
F0.0
sg26
I966522
sg27
F0.06458
ssS'LOWRY CHARLES P'
p66
(dp67
g3
g5
sg4
g5
sg6
F0.0
sg7
g5
sg8
I00
sg9
g5
sg10
g5
sg12
g5
sg13
I-153686
sg14
F0.0
sg15
g5
sg16
g5
sg17
g5
sg18
g5
sg19
F0.0
sg20
F0.0
sg21
F0.00758
sg22
g5
sg23
g5
sg24
I153686
sg25
F0.0
sg26
g5
sg27
F0.01084
ssS'COLWELL WESLEY'
p68
(dp69
g3
I1758
sg4
I27610
sg6
F0.13652
sg7
I16514
sg8
I01
sg9
I-144062
sg10
S'wes.colwell@enron.com'
p70
sg12
g5
sg13
g5
sg14
F0.20504
sg15
g5
sg16
I40
sg17
I101740
sg18
g5
sg19
F0.17143
sg20
F0.275
sg21
F0.01422
sg22
I240
sg23
I11
sg24
I698242
sg25
F0.25965
sg26
I1490344
sg27
F0.0
ssS'MULLER MARK S'
p71
(dp72
g3
I136
sg4
I842924
sg6
F0.08824
sg7
g5
sg8
I00
sg9
I-719000
sg10
S's..muller@enron.com'
p73
sg12
I1725545
sg13
g5
sg14
F0.02065
sg15
g5
sg16
I16
sg17
I947
sg18
g5
sg19
F0.15714
sg20
F0.0
sg21
F0.02885
sg22
I12
sg23
I0
sg24
I360528
sg25
F0.22646
sg26
I3202070
sg27
F0.03075
ssS'JACKSON CHARLENE R'
p74
(dp75
g3
I258
sg4
g5
sg6
F0.0969
sg7
I10181
sg8
I00
sg9
g5
sg10
S'charlene.jackson@enron.com'
p76
sg12
g5
sg13
g5
sg14
F0.02119
sg15
g5
sg16
I56
sg17
I2435
sg18
g5
sg19
F0.03571
sg20
F0.33929
sg21
F0.01478
sg22
I25
sg23
I19
sg24
I540672
sg25
F0.25967
sg26
I551174
sg27
F0.00539
ssS'WESTFAHL RICHARD K'
p77
(dp78
g3
g5
sg4
g5
sg6
F0.0
sg7
I51870
sg8
I00
sg9
I-10800
sg10
S'dick.westfahl@enron.com'
p79
sg12
I256191
sg13
g5
sg14
F0.0
sg15
g5
sg16
g5
sg17
I401130
sg18
g5
sg19
F0.0
sg20
F0.0
sg21
F0.00784
sg22
g5
sg23
g5
sg24
I384930
sg25
F0.05736
sg26
I762135
sg27
F0.0
ssS'WALTERS GARETH W'
p80
(dp81
g3
g5
sg4
I53625
sg6
F0.0
sg7
I33785
sg8
I00
sg9
g5
sg10
g5
sg12
g5
sg13
g5
sg14
F0.0
sg15
g5
sg16
g5
sg17
g5
sg18
g5
sg19
F0.0
sg20
F0.0
sg21
F0.02098
sg22
g5
sg23
g5
sg24
g5
sg25
F0.0
sg26
I87410
sg27
F0.03
ssS'WALLS JR ROBERT H'
p82
(dp83
g3
I671
sg4
g5
sg6
F0.02534
sg7
I50936
sg8
I00
sg9
g5
sg10
S'rob.walls@enron.com'
p84
sg12
I540751
sg13
g5
sg14
F0.03894
sg15
g5
sg16
I146
sg17
I2
sg18
g5
sg19
F0.12143
sg20
F0.0
sg21
F0.12012
sg22
I17
sg23
I0
sg24
I1552453
sg25
F0.32134
sg26
I1798780
sg27
F0.12654
ssS'CHAN RONNIE'
p85
(dp86
g3
g5
sg4
g5
sg6
F0.0
sg7
g5
sg8
I00
sg9
I-98784
sg10
g5
sg12
g5
sg13
I-32460
sg14
F0.0
sg15
g5
sg16
g5
sg17
g5
sg18
I98784
sg19
F0.0
sg20
F0.0
sg21
F0.0
sg22
g5
sg23
g5
sg24
I32460
sg25
F0.0
sg26
g5
sg27
F0.0
ssS'BELFER ROBERT'
p87
(dp88
g3
g5
sg4
S'NaN'
p89
sg6
F0.0
sg7
I3285
sg8
I00
sg9
I-102500
sg10
g5
sg12
g89
sg13
I-44093
sg14
F0.0
sg15
g89
sg16
g5
sg17
g89
sg18
I102500
sg19
F0.0
sg20
F0.0
sg21
F0.0
sg22
g5
sg23
g5
sg24
I44093
sg25
F0.0
sg26
I3285
sg27
F0.0
ssS'SHANKMAN JEFFREY A'
p90
(dp91
g3
I3221
sg4
g5
sg6
F0.02918
sg7
I178979
sg8
I00
sg9
g5
sg10
S'jeffrey.shankman@enron.com'
p92
sg12
I554422
sg13
g5
sg14
F0.31335
sg15
g5
sg16
I2681
sg17
I1191
sg18
g5
sg19
F0.28571
sg20
F0.03096
sg21
F0.04219
sg22
I94
sg23
I83
sg24
I630137
sg25
F0.27366
sg26
I3038702
sg27
F0.04198
ssS'WODRASKA JOHN'
p93
(dp94
g3
g5
sg4
g5
sg6
F0.0
sg7
g5
sg8
I00
sg9
g5
sg10
S'john.wodraska@enron.com'
p95
sg12
g5
sg13
g5
sg14
F0.0
sg15
g5
sg16
g5
sg17
I189583
sg18
g5
sg19
F0.0
sg20
F0.0
sg21
F0.0
sg22
g5
sg23
g5
sg24
g5
sg25
F0.0
sg26
I189583
sg27
F0.0
ssS'BERGSIEKER RICHARD P'
p96
(dp97
g3
I383
sg4
g5
sg6
F0.01044
sg7
I59175
sg8
I00
sg9
I-485813
sg10
S'rick.bergsieker@enron.com'
p98
sg12
I180250
sg13
g5
sg14
F0.0422
sg15
g5
sg16
I59
sg17
I427316
sg18
g5
sg19
F0.03571
sg20
F0.0
sg21
F0.01342
sg22
I4
sg23
I0
sg24
I659249
sg25
F0.16911
sg26
I618850
sg27
F0.0
ssS'URQUHART JOHN A'
p99
(dp100
g3
g5
sg4
g5
sg6
F0.0
sg7
I228656
sg8
I00
sg9
I-36666
sg10
g5
sg12
g5
sg13
g5
sg14
F0.0
sg15
g5
sg16
g5
sg17
g5
sg18
I36666
sg19
F0.0
sg20
F0.0
sg21
F0.0
sg22
g5
sg23
g5
sg24
g5
sg25
F0.0
sg26
I228656
sg27
F0.0
ssS'BIBI PHILIPPE A'
p101
(dp102
g3
I1607
sg4
g5
sg6
F0.01431
sg7
I38559
sg8
I00
sg9
g5
sg10
S'philippe.bibi@enron.com'
p103
sg12
I369721
sg13
g5
sg14
F0.24199
sg15
g5
sg16
I40
sg17
I425688
sg18
g5
sg19
F0.14286
sg20
F0.2
sg21
F0.03754
sg22
I23
sg23
I8
sg24
I378082
sg25
F0.19224
sg26
I2047593
sg27
F0.04267
ssS'RIEKER PAULA H'
p104
(dp105
g3
I1328
sg4
I214678
sg6
F0.02636
sg7
I33271
sg8
I01
sg9
I-100000
sg10
S'paula.rieker@enron.com'
p106
sg12
g5
sg13
g5
sg14
F0.22786
sg15
g5
sg16
I82
sg17
I1950
sg18
g5
sg19
F0.1
sg20
F0.58537
sg21
F0.03907
sg22
I35
sg23
I48
sg24
I283649
sg25
F0.22425
sg26
I1099100
sg27
F0.04761
ssS'WHALEY DAVID A'
p107
(dp108
g3
g5
sg4
g5
sg6
F0.0
sg7
g5
sg8
I00
sg9
g5
sg10
g5
sg12
g5
sg13
g5
sg14
F0.0
sg15
g5
sg16
g5
sg17
g5
sg18
g5
sg19
F0.0
sg20
F0.0
sg21
F0.00201
sg22
g5
sg23
g5
sg24
g5
sg25
F0.0
sg26
g5
sg27
F0.00287
ssS'BECK SALLY W'
p109
(dp110
g3
I7315
sg4
g5
sg6
F0.01969
sg7
I37172
sg8
I00
sg9
g5
sg10
S'sally.beck@enron.com'
p111
sg12
g5
sg13
g5
sg14
F0.47799
sg15
g5
sg16
I4343
sg17
I566
sg18
g5
sg19
F0.1
sg20
F0.08888
sg21
F0.00257
sg22
I144
sg23
I386
sg24
I126027
sg25
F0.20817
sg26
I969068
sg27
F0.0
ssS'HAUG DAVID L'
p112
(dp113
g3
I573
sg4
g5
sg6
F0.00698
sg7
I475
sg8
I00
sg9
g5
sg10
S'david.haug@enron.com'
p114
sg12
g5
sg13
g5
sg14
F0.08531
sg15
g5
sg16
I19
sg17
g5
sg18
g5
sg19
F0.0
sg20
F0.36842
sg21
F0.04515
sg22
I4
sg23
I7
sg24
I2217299
sg25
F0.0
sg26
I475
sg27
F0.0
ssS'ECHOLS JOHN B'
p115
(dp116
g3
g5
sg4
g5
sg6
F0.0
sg7
I21530
sg8
I00
sg9
g5
sg10
S'john.echols@enron.com'
p117
sg12
I2234774
sg13
g5
sg14
F0.0
sg15
g5
sg16
g5
sg17
I53775
sg18
g5
sg19
F0.02857
sg20
F0.0
sg21
F0.02054
sg22
g5
sg23
g5
sg24
I407503
sg25
F0.164
sg26
I2692324
sg27
F0.01751
ssS'MENDELSOHN JOHN'
p118
(dp119
g3
g5
sg4
g5
sg6
F0.0
sg7
I148
sg8
I00
sg9
I-103750
sg10
g5
sg12
g5
sg13
g5
sg14
F0.0
sg15
g5
sg16
g5
sg17
g5
sg18
I103750
sg19
F0.0
sg20
F0.0
sg21
F0.0
sg22
g5
sg23
g5
sg24
g5
sg25
F0.0
sg26
I148
sg27
F0.0
ssS'HICKERSON GARY J'
p120
(dp121
g3
I1320
sg4
g5
sg6
F0.0303
sg7
I98849
sg8
I00
sg9
g5
sg10
S'gary.hickerson@enron.com'
p122
sg12
I69223
sg13
g5
sg14
F0.16301
sg15
g5
sg16
I27
sg17
I1936
sg18
g5
sg19
F0.24286
sg20
F0.03704
sg21
F0.00898
sg22
I40
sg23
I1
sg24
I441096
sg25
F0.19058
sg26
I2081796
sg27
F0.0
ssS'CLINE KENNETH W'
p123
(dp124
g3
g5
sg4
g5
sg6
F0.0
sg7
g5
sg8
I00
sg9
g5
sg10
g5
sg12
g5
sg13
I-472568
sg14
F0.0
sg15
g5
sg16
g5
sg17
g5
sg18
g5
sg19
F0.0
sg20
F0.0
sg21
F0.00386
sg22
g5
sg23
g5
sg24
I662086
sg25
F0.0
sg26
g5
sg27
F0.0
ssS'LEWIS RICHARD'
p125
(dp126
g3
I952
sg4
g5
sg6
F0.0105
sg7
g5
sg8
I00
sg9
g5
sg10
S'richard.lewis@enron.com'
p127
sg12
g5
sg13
g5
sg14
F0.13385
sg15
g5
sg16
I26
sg17
g5
sg18
g5
sg19
F0.0
sg20
F0.0
sg21
F0.01732
sg22
I10
sg23
I0
sg24
g5
sg25
F0.0
sg26
g5
sg27
F0.02476
ssS'HAYES ROBERT E'
p128
(dp129
g3
I504
sg4
I7961
sg6
F0.03175
sg7
g5
sg8
I00
sg9
g5
sg10
S'robert.hayes@enron.com'
p130
sg12
g5
sg13
g5
sg14
F0.00906
sg15
g5
sg16
I12
sg17
g5
sg18
g5
sg19
F0.0
sg20
F0.0
sg21
F0.00308
sg22
I16
sg23
I0
sg24
I151418
sg25
F0.0
sg26
I7961
sg27
F0.0
ssS'MCCARTY DANNY J'
p131
(dp132
g3
I1433
sg4
g5
sg6
F0.01745
sg7
g5
sg8
I00
sg9
g5
sg10
S'danny.mccarty@enron.com'
p133
sg12
g5
sg13
g5
sg14
F0.09201
sg15
g5
sg16
I215
sg17
g5
sg18
g5
sg19
F0.0
sg20
F0.0093
sg21
F0.01545
sg22
I25
sg23
I2
sg24
I94556
sg25
F0.0
sg26
g5
sg27
F0.01934
ssS'KOPPER MICHAEL J'
p134
(dp135
g3
g5
sg4
g5
sg6
F0.0
sg7
I118134
sg8
I01
sg9
g5
sg10
S'michael.kopper@enron.com'
p136
sg12
I602671
sg13
g5
sg14
F0.0
sg15
g5
sg16
g5
sg17
I907502
sg18
g5
sg19
F0.11429
sg20
F0.0
sg21
F0.02006
sg22
g5
sg23
g5
sg24
I985032
sg25
F0.20185
sg26
I2652612
sg27
F0.0
ssS'LEFF DANIEL P'
p137
(dp138
g3
I2822
sg4
g5
sg6
F0.02374
sg7
g5
sg8
I00
sg9
g5
sg10
S'dan.leff@enron.com'
p139
sg12
I1387399
sg13
g5
sg14
F0.48397
sg15
g5
sg16
I63
sg17
I3083
sg18
g5
sg19
F0.14286
sg20
F0.22222
sg21
F0.00734
sg22
I67
sg23
I14
sg24
I360528
sg25
F0.24634
sg26
I2664228
sg27
F0.0
ssS'BERBERIAN DAVID'
p140
(dp141
g3
g5
sg4
g5
sg6
F0.0
sg7
I11892
sg8
I00
sg9
g5
sg10
S'david.berberian@enron.com'
p142
sg12
g5
sg13
g5
sg14
F0.0
sg15
g5
sg16
g5
sg17
g5
sg18
g5
sg19
F0.0
sg20
F0.0
sg21
F0.05078
sg22
g5
sg23
g5
sg24
I869220
sg25
F0.1949
sg26
I228474
sg27
F0.04729
ssS'DETMERING TIMOTHY J'
p143
(dp144
g3
g5
sg4
I875307
sg6
F0.0
sg7
I52255
sg8
I00
sg9
I-775241
sg10
S'timothy.detmering@enron.com'
p145
sg12
I415657
sg13
I-315068
sg14
F0.0
sg15
g5
sg16
g5
sg17
I1105
sg18
g5
sg19
F0.06071
sg20
F0.0
sg21
F0.04129
sg22
g5
sg23
g5
sg24
I315068
sg25
F0.18942
sg26
I1204583
sg27
F0.05904
ssS'WAKEHAM JOHN'
p146
(dp147
g3
g5
sg4
g5
sg6
F0.0
sg7
I103773
sg8
I00
sg9
g5
sg10
g5
sg12
g5
sg13
g5
sg14
F0.0
sg15
g5
sg16
g5
sg17
g5
sg18
I109298
sg19
F0.0
sg20
F0.0
sg21
F0.0
sg22
g5
sg23
g5
sg24
g5
sg25
F0.0
sg26
I213071
sg27
F0.0
ssS'POWERS WILLIAM'
p148
(dp149
g3
I653
sg4
g5
sg6
F0.0
sg7
g5
sg8
I00
sg9
I-17500
sg10
S'ken.powers@enron.com'
p150
sg12
g5
sg13
g5
sg14
F0.00217
sg15
g5
sg16
I26
sg17
g5
sg18
I17500
sg19
F0.0
sg20
F0.0
sg21
F0.0
sg22
I0
sg23
I0
sg24
g5
sg25
F0.0
sg26
g5
sg27
F0.0
ssS'GOLD JOSEPH'
p151
(dp152
g3
g5
sg4
g5
sg6
F0.0
sg7
g5
sg8
I00
sg9
g5
sg10
S'joe.gold@enron.com'
p153
sg12
I304805
sg13
g5
sg14
F0.0
sg15
g5
sg16
g5
sg17
I819288
sg18
g5
sg19
F0.10714
sg20
F0.0
sg21
F0.01787
sg22
g5
sg23
g5
sg24
I441096
sg25
F0.24556
sg26
I2146973
sg27
F0.01271
ssS'BANNANTINE JAMES M'
p154
(dp155
g3
I566
sg4
g5
sg6
F0.0689
sg7
I56301
sg8
I00
sg9
I-5104
sg10
S'james.bannantine@enron.com'
p156
sg12
g5
sg13
I-560222
sg14
F0.08422
sg15
g5
sg16
I29
sg17
I864523
sg18
g5
sg19
F0.0
sg20
F0.0
sg21
F0.10677
sg22
I39
sg23
I0
sg24
I1757552
sg25
F0.00043
sg26
I916197
sg27
F0.1178
ssS'DUNCAN JOHN H'
p157
(dp158
g3
g5
sg4
g5
sg6
F0.0
sg7
g5
sg8
I00
sg9
I-25000
sg10
g5
sg12
g5
sg13
g5
sg14
F0.0
sg15
g5
sg16
g5
sg17
g5
sg18
I102492
sg19
F0.0
sg20
F0.0
sg21
F0.00757
sg22
g5
sg23
g5
sg24
g5
sg25
F0.0
sg26
I77492
sg27
F0.01082
ssS'SHERRIFF JOHN R'
p159
(dp160
g3
I3187
sg4
g5
sg6
F0.00879
sg7
g5
sg8
I00
sg9
g5
sg10
S'john.sherriff@enron.com'
p161
sg12
I554422
sg13
g5
sg14
F0.38091
sg15
g5
sg16
I92
sg17
I1852186
sg18
g5
sg19
F0.21429
sg20
F0.25
sg21
F0.06371
sg22
I28
sg23
I23
sg24
I1293424
sg25
F0.38585
sg26
I4335388
sg27
F0.05344
ssS'SHELBY REX'
p162
(dp163
g3
I225
sg4
g5
sg6
F0.05778
sg7
I22884
sg8
I01
sg9
I-4167
sg10
S'rex.shelby@enron.com'
p164
sg12
g5
sg13
g5
sg14
F0.01648
sg15
g5
sg16
I39
sg17
I1573324
sg18
g5
sg19
F0.02857
sg20
F0.35897
sg21
F0.05078
sg22
I13
sg23
I14
sg24
I869220
sg25
F0.19063
sg26
I2003885
sg27
F0.04729
ssS'LEMAISTRE CHARLES'
p165
(dp166
g3
g5
sg4
g5
sg6
F0.0
sg7
g5
sg8
I00
sg9
I-25000
sg10
g5
sg12
g5
sg13
g5
sg14
F0.0
sg15
g5
sg16
g5
sg17
g5
sg18
I112492
sg19
F0.0
sg20
F0.0
sg21
F0.00841
sg22
g5
sg23
g5
sg24
g5
sg25
F0.0
sg26
I87492
sg27
F0.01202
ssS'DEFFNER JOSEPH M'
p167
(dp168
g3
I714
sg4
g5
sg6
F0.16106
sg7
I41626
sg8
I00
sg9
g5
sg10
S'joseph.deffner@enron.com'
p169
sg12
I335349
sg13
g5
sg14
F0.09998
sg15
g5
sg16
I74
sg17
I25553
sg18
g5
sg19
F0.08571
sg20
F0.05405
sg21
F0.00324
sg22
I115
sg23
I4
sg24
I141833
sg25
F0.18548
sg26
I1208649
sg27
F0.00051
ssS'KISHKILL JOSEPH G'
p170
(dp171
g3
g5
sg4
g5
sg6
F0.0
sg7
I116335
sg8
I00
sg9
I-51042
sg10
S'joe.kishkill@enron.com'
p172
sg12
g5
sg13
g5
sg14
F0.0
sg15
g5
sg16
g5
sg17
I465357
sg18
g5
sg19
F0.0
sg20
F0.0
sg21
F0.02106
sg22
g5
sg23
g5
sg24
I1034346
sg25
F0.1568
sg26
I704896
sg27
F0.0
ssS'WHALLEY LAWRENCE G'
p173
(dp174
g3
I6019
sg4
g5
sg6
F0.0309
sg7
I57838
sg8
I00
sg9
g5
sg10
S'greg.whalley@enron.com'
p175
sg12
I808346
sg13
g5
sg14
F0.71002
sg15
g5
sg16
I556
sg17
I301026
sg18
g5
sg19
F0.42857
sg20
F0.04317
sg21
F0.12379
sg22
I186
sg23
I24
sg24
I2796177
sg25
F0.45927
sg26
I4677574
sg27
F0.09558
ssS'MCCONNELL MICHAEL S'
p176
(dp177
g3
I3329
sg4
g5
sg6
F0.02764
sg7
I81364
sg8
I00
sg9
g5
sg10
S'mike.mcconnell@enron.com'
p178
sg12
I554422
sg13
g5
sg14
F0.39649
sg15
g5
sg16
I2742
sg17
I540
sg18
g5
sg19
F0.15714
sg20
F0.07075
sg21
F0.06315
sg22
I92
sg23
I194
sg24
I1478269
sg25
F0.32849
sg26
I2101364
sg27
F0.04725
ssS'PIRO JIM'
p179
(dp180
g3
I58
sg4
g5
sg6
F0.0
sg7
g5
sg8
I00
sg9
g5
sg10
S'jim.piro@enron.com'
p181
sg12
g5
sg13
g5
sg14
F0.00054
sg15
g5
sg16
I16
sg17
g5
sg18
g5
sg19
F0.0
sg20
F0.0625
sg21
F0.00096
sg22
I0
sg23
I1
sg24
I47304
sg25
F0.0
sg26
g5
sg27
F0.0
ssS'DELAINEY DAVID W'
p182
(dp183
g3
I3093
sg4
g5
sg6
F0.02134
sg7
I86174
sg8
I01
sg9
g5
sg10
S'david.delainey@enron.com'
p184
sg12
I1294981
sg13
g5
sg14
F0.37982
sg15
g5
sg16
I3069
sg17
I1661
sg18
g5
sg19
F0.42857
sg20
F0.19844
sg21
F0.0736
sg22
I66
sg23
I609
sg24
I1323148
sg25
F0.3286
sg26
I4747979
sg27
F0.0667
ssS'SULLIVAN-SHAKLOVITZ COLLEEN'
p185
(dp186
g3
g5
sg4
I181993
sg6
F0.0
sg7
g5
sg8
I00
sg9
g5
sg10
g5
sg12
I554422
sg13
g5
sg14
F0.0
sg15
g5
sg16
g5
sg17
I162
sg18
g5
sg19
F0.01429
sg20
F0.0
sg21
F0.02774
sg22
g5
sg23
g5
sg24
g5
sg25
F0.14648
sg26
I999356
sg27
F0.03966
ssS'WROBEL BRUCE'
p187
(dp188
g3
g5
sg4
g5
sg6
F0.0
sg7
g5
sg8
I00
sg9
g5
sg10
g5
sg12
g5
sg13
g5
sg14
F0.0
sg15
g5
sg16
g5
sg17
g5
sg18
g5
sg19
F0.0
sg20
F0.0
sg21
F0.00283
sg22
g5
sg23
g5
sg24
g5
sg25
F0.0
sg26
g5
sg27
F0.00405
ssS'LINDHOLM TOD A'
p189
(dp190
g3
g5
sg4
I204075
sg6
F0.0
sg7
I57727
sg8
I00
sg9
g5
sg10
S'tod.lindholm@enron.com'
p191
sg12
I175000
sg13
g5
sg14
F0.0
sg15
g5
sg16
g5
sg17
I2630
sg18
g5
sg19
F0.02857
sg20
F0.0
sg21
F0.06239
sg22
g5
sg23
g5
sg24
I514847
sg25
F0.21278
sg26
I875889
sg27
F0.07422
ssS'MEYER JEROME J'
p192
(dp193
g3
g5
sg4
g5
sg6
F0.0
sg7
I2151
sg8
I00
sg9
I-38346
sg10
g5
sg12
g5
sg13
g5
sg14
F0.0
sg15
g5
sg16
g5
sg17
g5
sg18
I38346
sg19
F0.0
sg20
F0.0
sg21
F0.0
sg22
g5
sg23
g5
sg24
g5
sg25
F0.0
sg26
I2151
sg27
F0.0
ssS'LAY KENNETH L'
p194
(dp195
g3
I4273
sg4
I202911
sg6
F0.02879
sg7
I99832
sg8
I01
sg9
I-300000
sg10
S'kenneth.lay@enron.com'
p196
sg12
I3600000
sg13
g5
sg14
F0.4367
sg15
I81525000
sg16
I36
sg17
I10359729
sg18
g5
sg19
F1.0
sg20
F0.44444
sg21
F1.0
sg22
I123
sg23
I16
sg24
I14761694
sg25
F0.96496
sg26
I103559793
sg27
F1.0
ssS'BUTTS ROBERT H'
p197
(dp198
g3
g5
sg4
g5
sg6
F0.0
sg7
I9410
sg8
I00
sg9
I-75000
sg10
S'bob.butts@enron.com'
p199
sg12
I175000
sg13
g5
sg14
F0.0
sg15
g5
sg16
g5
sg17
I150656
sg18
g5
sg19
F0.10714
sg20
F0.0
sg21
F0.0085
sg22
g5
sg23
g5
sg24
I417619
sg25
F0.23533
sg26
I1271582
sg27
F0.0
ssS'OLSON CINDY K'
p200
(dp201
g3
I1184
sg4
I77716
sg6
F0.01689
sg7
I63791
sg8
I00
sg9
g5
sg10
S'cindy.olson@enron.com'
p202
sg12
I100000
sg13
g5
sg14
F0.15504
sg15
g5
sg16
I52
sg17
I972
sg18
g5
sg19
F0.10714
sg20
F0.28846
sg21
F0.05308
sg22
I20
sg23
I15
sg24
I969729
sg25
F0.29613
sg26
I1321557
sg27
F0.04766
ssS'MCDONALD REBECCA'
p203
(dp204
g3
I894
sg4
g5
sg6
F0.0604
sg7
g5
sg8
I00
sg9
g5
sg10
S'rebecca.mcdonald@enron.com'
p205
sg12
g5
sg13
g5
sg14
F0.13041
sg15
g5
sg16
I13
sg17
g5
sg18
g5
sg19
F0.0
sg20
F0.07692
sg21
F0.03444
sg22
I54
sg23
I1
sg24
I934065
sg25
F0.0
sg26
g5
sg27
F0.02205
ssS'CUMBERLAND MICHAEL S'
p206
(dp207
g3
g5
sg4
g5
sg6
F0.0
sg7
I22344
sg8
I00
sg9
g5
sg10
g5
sg12
I275000
sg13
g5
sg14
F0.0
sg15
g5
sg16
g5
sg17
I713
sg18
g5
sg19
F0.04643
sg20
F0.0
sg21
F0.00423
sg22
g5
sg23
g5
sg24
I207940
sg25
F0.16639
sg26
I807956
sg27
F0.0
ssS'GAHN ROBERT S'
p208
(dp209
g3
g5
sg4
I73122
sg6
F0.0
sg7
I50080
sg8
I00
sg9
I-1042
sg10
g5
sg12
g5
sg13
g5
sg14
F0.0
sg15
g5
sg16
g5
sg17
I76547
sg18
g5
sg19
F0.07284
sg20
F0.0
sg21
F0.00649
sg22
g5
sg23
g5
sg24
I235370
sg25
F0.17278
sg26
I900585
sg27
F0.00242
ssS'MCCLELLAN GEORGE'
p210
(dp211
g3
I1744
sg4
g5
sg6
F0.02982
sg7
I228763
sg8
I00
sg9
I-125000
sg10
S'george.mcclellan@enron.com'
p212
sg12
g5
sg13
g5
sg14
F0.26607
sg15
g5
sg16
I49
sg17
I51587
sg18
g5
sg19
F0.12857
sg20
F0.0
sg21
F0.0193
sg22
I52
sg23
I0
sg24
I441096
sg25
F0.23704
sg26
I1318763
sg27
F0.01475
ssS'HERMANN ROBERT J'
p213
(dp214
g3
g5
sg4
g5
sg6
F0.0
sg7
I48357
sg8
I00
sg9
I-280000
sg10
S'robert.hermann@enron.com'
p215
sg12
I150000
sg13
g5
sg14
F0.0
sg15
g5
sg16
g5
sg17
I416441
sg18
g5
sg19
F0.1
sg20
F0.0
sg21
F0.0136
sg22
g5
sg23
g5
sg24
I480632
sg25
F0.23637
sg26
I1297461
sg27
F0.00546
ssS'SCRIMSHAW MATTHEW'
p216
(dp217
g3
g5
sg4
g5
sg6
F0.0
sg7
g5
sg8
I00
sg9
g5
sg10
S'matthew.scrimshaw@enron.com'
p218
sg12
g5
sg13
g5
sg14
F0.0
sg15
g5
sg16
g5
sg17
g5
sg18
g5
sg19
F0.0
sg20
F0.0
sg21
F0.01547
sg22
g5
sg23
g5
sg24
g5
sg25
F0.0
sg26
g5
sg27
F0.02211
ssS'GATHMANN WILLIAM D'
p219
(dp220
g3
g5
sg4
g5
sg6
F0.0
sg7
g5
sg8
I00
sg9
g5
sg10
g5
sg12
g5
sg13
I-72419
sg14
F0.0
sg15
g5
sg16
g5
sg17
g5
sg18
g5
sg19
F0.0
sg20
F0.0
sg21
F0.03961
sg22
g5
sg23
g5
sg24
I264013
sg25
F0.0
sg26
g5
sg27
F0.05106
ssS'HAEDICKE MARK E'
p221
(dp222
g3
I4009
sg4
I2157527
sg6
F0.0449
sg7
I76169
sg8
I00
sg9
I-934484
sg10
S'mark.haedicke@enron.com'
p223
sg12
I983346
sg13
I-329825
sg14
F0.33454
sg15
g5
sg16
I1941
sg17
I52382
sg18
g5
sg19
F0.16429
sg20
F0.03143
sg21
F0.01635
sg22
I180
sg23
I61
sg24
I524169
sg25
F0.33667
sg26
I3859065
sg27
F0.01772
ssS'BOWEN JR RAYMOND M'
p224
(dp225
g3
I1858
sg4
g5
sg6
F0.07535
sg7
I65907
sg8
I01
sg9
I-833
sg10
S'raymond.bowen@enron.com'
p226
sg12
I974293
sg13
g5
sg14
F0.28853
sg15
g5
sg16
I27
sg17
I1621
sg18
g5
sg19
F0.19286
sg20
F0.55556
sg21
F0.00513
sg22
I140
sg23
I15
sg24
I252055
sg25
F0.25071
sg26
I2669589
sg27
F0.0
ssS'GILLIS JOHN'
p227
(dp228
g3
g5
sg4
g5
sg6
F0.0
sg7
g5
sg8
I00
sg9
g5
sg10
g5
sg12
g5
sg13
g5
sg14
F0.0
sg15
g5
sg16
g5
sg17
g5
sg18
g5
sg19
F0.0
sg20
F0.0
sg21
F0.00174
sg22
g5
sg23
g5
sg24
I75838
sg25
F0.0
sg26
g5
sg27
F0.00029
ssS'FITZGERALD JAY L'
p229
(dp230
g3
I936
sg4
g5
sg6
F0.00107
sg7
I23870
sg8
I00
sg9
g5
sg10
S'jay.fitzgerald@enron.com'
p231
sg12
I556416
sg13
g5
sg14
F0.13095
sg15
g5
sg16
I16
sg17
I285414
sg18
g5
sg19
F0.05
sg20
F0.5
sg21
F0.03301
sg22
I1
sg23
I8
sg24
I956775
sg25
F0.17922
sg26
I1414857
sg27
F0.01934
ssS'MORAN MICHAEL P'
p232
(dp233
g3
I672
sg4
g5
sg6
F0.0
sg7
g5
sg8
I00
sg9
g5
sg10
S'michael.moran@enron.com'
p234
sg12
g5
sg13
g5
sg14
F0.023
sg15
g5
sg16
I19
sg17
g5
sg18
g5
sg19
F0.0
sg20
F0.0
sg21
F0.0045
sg22
I0
sg23
I0
sg24
I161602
sg25
F0.0
sg26
g5
sg27
F0.00173
ssS'REDMOND BRIAN L'
p235
(dp236
g3
I1671
sg4
g5
sg6
F0.12208
sg7
I14689
sg8
I00
sg9
g5
sg10
S'brian.redmond@enron.com'
p237
sg12
g5
sg13
g5
sg14
F0.19254
sg15
g5
sg16
I221
sg17
g5
sg18
g5
sg19
F0.0
sg20
F0.22172
sg21
F0.16067
sg22
I204
sg23
I49
sg24
I381285
sg25
F0.08714
sg26
I111529
sg27
F0.21861
ssS'BAZELIDES PHILIP J'
p238
(dp239
g3
g5
sg4
I684694
sg6
F0.0
sg7
g5
sg8
I00
sg9
g5
sg10
g5
sg12
I93750
sg13
g5
sg14
F0.0
sg15
g5
sg16
g5
sg17
I874
sg18
g5
sg19
F0.0
sg20
F0.0
sg21
F0.03257
sg22
g5
sg23
g5
sg24
g5
sg25
F0.07273
sg26
I860136
sg27
F0.04657
ssS'BELDEN TIMOTHY N'
p240
(dp241
g3
I7991
sg4
I2144013
sg6
F0.02853
sg7
I17355
sg8
I01
sg9
I-2334434
sg10
S'tim.belden@enron.com'
p242
sg12
g5
sg13
g5
sg14
F1.0
sg15
g5
sg16
I484
sg17
I210698
sg18
g5
sg19
F0.75
sg20
F0.22314
sg21
F0.02262
sg22
I228
sg23
I108
sg24
I157569
sg25
F0.19257
sg26
I5501630
sg27
F0.02775
ssS'DURAN WILLIAM D'
p243
(dp244
g3
I904
sg4
g5
sg6
F0.11726
sg7
I25785
sg8
I00
sg9
g5
sg10
S'w.duran@enron.com'
p245
sg12
I1105218
sg13
g5
sg14
F0.10849
sg15
g5
sg16
I12
sg17
I1568
sg18
g5
sg19
F0.10714
sg20
F0.25
sg21
F0.03341
sg22
I106
sg23
I3
sg24
I189041
sg25
F0.1896
sg26
I2093263
sg27
F0.04227
ssS'THORN TERENCE H'
p246
(dp247
g3
I266
sg4
I16586
sg6
F0.0
sg7
I46145
sg8
I00
sg9
g5
sg10
S'terence.thorn@enron.com'
p248
sg12
I200000
sg13
g5
sg14
F0.01322
sg15
g5
sg16
I41
sg17
I426629
sg18
g5
sg19
F0.0
sg20
F0.0
sg21
F0.0981
sg22
I0
sg23
I0
sg24
I365320
sg25
F0.19986
sg26
I911453
sg27
F0.12963
ssS'FASTOW ANDREW S'
p249
(dp250
g3
g5
sg4
g5
sg6
F0.0
sg7
I55921
sg8
I01
sg9
I-1386055
sg10
S'andrew.fastow@enron.com'
p251
sg12
I1736055
sg13
g5
sg14
F0.0
sg15
g5
sg16
g5
sg17
I277464
sg18
g5
sg19
F0.18571
sg20
F0.0
sg21
F0.03654
sg22
g5
sg23
g5
sg24
I1794412
sg25
F0.39658
sg26
I2424083
sg27
F0.0
ssS'FOY JOE'
p252
(dp253
g3
I57
sg4
I181755
sg6
F0.0
sg7
g5
sg8
I00
sg9
g5
sg10
S'tracy.foy@enron.com'
p254
sg12
g5
sg13
g5
sg14
F0.00036
sg15
g5
sg16
I13
sg17
g5
sg18
g5
sg19
F0.0
sg20
F0.0
sg21
F0.00699
sg22
I0
sg23
I0
sg24
g5
sg25
F0.0
sg26
I181755
sg27
F0.01
ssS'CALGER CHRISTOPHER F'
p255
(dp256
g3
I2598
sg4
g5
sg6
F0.0766
sg7
I35818
sg8
I01
sg9
I-262500
sg10
S'christopher.calger@enron.com'
p257
sg12
I375304
sg13
g5
sg14
F0.39631
sg15
g5
sg16
I144
sg17
I486
sg18
g5
sg19
F0.17857
sg20
F0.17361
sg21
F0.00257
sg22
I199
sg23
I25
sg24
I126027
sg25
F0.21614
sg26
I1639297
sg27
F0.0
ssS'RICE KENNETH D'
p258
(dp259
g3
I905
sg4
g5
sg6
F0.04641
sg7
I46950
sg8
I01
sg9
I-3504386
sg10
S'ken.rice@enron.com'
p260
sg12
I1617011
sg13
g5
sg14
F0.15649
sg15
g5
sg16
I18
sg17
I174839
sg18
g5
sg19
F0.25
sg20
F0.22222
sg21
F0.45902
sg22
I42
sg23
I4
sg24
I2748364
sg25
F0.37852
sg26
I505050
sg27
F0.57628
ssS'KAMINSKI WINCENTY J'
p261
(dp262
g3
I4607
sg4
g5
sg6
F0.0089
sg7
I83585
sg8
I00
sg9
g5
sg10
S'vince.kaminski@enron.com'
p263
sg12
I323466
sg13
g5
sg14
F0.1056
sg15
g5
sg16
I14368
sg17
I4669
sg18
g5
sg19
F0.05714
sg20
F0.0119
sg21
F0.01987
sg22
I41
sg23
I171
sg24
I126027
sg25
F0.24756
sg26
I1086821
sg27
F0.02475
ssS'COX DAVID'
p264
(dp265
g3
I102
sg4
g5
sg6
F0.0
sg7
I27861
sg8
I00
sg9
I-41250
sg10
S'chip.cox@enron.com'
p266
sg12
g5
sg13
g5
sg14
F0.01286
sg15
g5
sg16
I33
sg17
I494
sg18
g5
sg19
F0.11429
sg20
F0.12121
sg21
F0.01009
sg22
I0
sg23
I4
sg24
I378082
sg25
F0.28282
sg26
I1101393
sg27
F0.00342
ssS'OVERDYKE JR JERE C'
p267
(dp268
g3
g5
sg4
g5
sg6
F0.0
sg7
I18834
sg8
I00
sg9
g5
sg10
S'jere.overdyke@enron.com'
p269
sg12
I135836
sg13
g5
sg14
F0.0
sg15
g5
sg16
g5
sg17
I176
sg18
g5
sg19
F0.0
sg20
F0.0
sg21
F0.1488
sg22
g5
sg23
g5
sg24
I2041016
sg25
F0.08544
sg26
I249787
sg27
F0.15333
ssS'PEREIRA PAULO V. FERRAZ'
p270
(dp271
g3
g5
sg4
g5
sg6
F0.0
sg7
I27942
sg8
I00
sg9
I-101250
sg10
g5
sg12
g5
sg13
g5
sg14
F0.0
sg15
g5
sg16
g5
sg17
g5
sg18
I101250
sg19
F0.0
sg20
F0.0
sg21
F0.0
sg22
g5
sg23
g5
sg24
g5
sg25
F0.0
sg26
I27942
sg27
F0.0
ssS'STABLER FRANK'
p272
(dp273
g3
g5
sg4
g5
sg6
F0.0
sg7
I16514
sg8
I00
sg9
g5
sg10
S'frank.stabler@enron.com'
p274
sg12
g5
sg13
g5
sg14
F0.0
sg15
g5
sg16
g5
sg17
I356071
sg18
g5
sg19
F0.07143
sg20
F0.0
sg21
F0.01042
sg22
g5
sg23
g5
sg24
I511734
sg25
F0.21552
sg26
I1112087
sg27
F0.0
ssS'SKILLING JEFFREY K'
p275
(dp276
g3
I3627
sg4
g5
sg6
F0.02426
sg7
I29336
sg8
I01
sg9
g5
sg10
S'jeff.skilling@enron.com'
p277
sg12
I1920000
sg13
g5
sg14
F0.36986
sg15
g5
sg16
I108
sg17
I22122
sg18
g5
sg19
F0.8
sg20
F0.27778
sg21
F0.53133
sg22
I88
sg23
I30
sg24
I6843672
sg25
F1.0
sg26
I8682716
sg27
F0.56043
ssS'BLAKE JR. NORMAN P'
p278
(dp279
g3
g5
sg4
g5
sg6
F0.0
sg7
I1279
sg8
I00
sg9
I-113784
sg10
g5
sg12
g5
sg13
g5
sg14
F0.0
sg15
g5
sg16
g5
sg17
g5
sg18
I113784
sg19
F0.0
sg20
F0.0
sg21
F0.0
sg22
g5
sg23
g5
sg24
g5
sg25
F0.0
sg26
I1279
sg27
F0.0
ssS'SHERRICK JEFFREY B'
p280
(dp281
g3
I613
sg4
g5
sg6
F0.06362
sg7
g5
sg8
I00
sg9
g5
sg10
S'jeffrey.sherrick@enron.com'
p282
sg12
g5
sg13
g5
sg14
F0.1056
sg15
g5
sg16
I25
sg17
g5
sg18
g5
sg19
F0.0
sg20
F0.72
sg21
F0.03731
sg22
I39
sg23
I18
sg24
I405999
sg25
F0.0
sg26
g5
sg27
F0.04153
ssS'PRENTICE JAMES'
p283
(dp284
g3
g5
sg4
I564348
sg6
F0.0
sg7
g5
sg8
I00
sg9
g5
sg10
S'james.prentice@enron.com'
p285
sg12
g5
sg13
g5
sg14
F0.0
sg15
g5
sg16
g5
sg17
g5
sg18
g5
sg19
F0.0
sg20
F0.0
sg21
F0.0223
sg22
g5
sg23
g5
sg24
I208809
sg25
F0.0
sg26
I564348
sg27
F0.0258
ssS'GRAY RODNEY'
p286
(dp287
g3
g5
sg4
I93585
sg6
F0.0
sg7
g5
sg8
I00
sg9
g5
sg10
g5
sg12
I365625
sg13
g5
sg14
F0.0
sg15
g5
sg16
g5
sg17
I680833
sg18
g5
sg19
F0.0
sg20
F0.0
sg21
F0.0
sg22
g5
sg23
g5
sg24
g5
sg25
F0.00595
sg26
I1146658
sg27
F0.0
ssS'PICKERING MARK R'
p288
(dp289
g3
I898
sg4
g5
sg6
F0.0078
sg7
I31653
sg8
I00
sg9
g5
sg10
S'mark.pickering@enron.com'
p290
sg12
g5
sg13
g5
sg14
F0.13186
sg15
I400000
sg16
I67
sg17
g5
sg18
g5
sg19
F0.04286
sg20
F0.0
sg21
F0.00059
sg22
I7
sg23
I0
sg24
g5
sg25
F0.58946
sg26
I1386690
sg27
F0.00084
ssS'NOLES JAMES L'
p291
(dp292
g3
g5
sg4
I774401
sg6
F0.0
sg7
g5
sg8
I00
sg9
g5
sg10
g5
sg12
g5
sg13
I-94556
sg14
F0.0
sg15
g5
sg16
g5
sg17
g5
sg18
g5
sg19
F0.0
sg20
F0.0
sg21
F0.00751
sg22
g5
sg23
g5
sg24
I463261
sg25
F0.0
sg26
I774401
sg27
F0.0
ssS'FOWLER PEGGY'
p293
(dp294
g3
I517
sg4
g5
sg6
F0.0
sg7
g5
sg8
I00
sg9
g5
sg10
S'kulvinder.fowler@enron.com'
p295
sg12
g5
sg13
g5
sg14
F0.00181
sg15
g5
sg16
I36
sg17
g5
sg18
g5
sg19
F0.0
sg20
F0.0
sg21
F0.03838
sg22
I0
sg23
I0
sg24
I560170
sg25
F0.0
sg26
g5
sg27
F0.03856
ssS'WASAFF GEORGE'
p296
(dp297
g3
I400
sg4
I831299
sg6
F0.055
sg7
g5
sg8
I00
sg9
I-583325
sg10
S'george.wasaff@enron.com'
p298
sg12
I200000
sg13
g5
sg14
F0.06104
sg15
g5
sg16
I30
sg17
I1425
sg18
g5
sg19
F0.04643
sg20
F0.23333
sg21
F0.04187
sg22
I22
sg23
I7
sg24
I388167
sg25
F0.23397
sg26
I1034395
sg27
F0.04857
ssS'WHITE JR THOMAS E'
p299
(dp300
g3
g5
sg4
g5
sg6
F0.0
sg7
I81353
sg8
I00
sg9
g5
sg10
S'thomas.white@enron.com'
p301
sg12
g5
sg13
g5
sg14
F0.0
sg15
g5
sg16
g5
sg17
I1085463
sg18
g5
sg19
F0.06429
sg20
F0.0
sg21
F0.30837
sg22
g5
sg23
g5
sg24
I13847074
sg25
F0.28575
sg26
I1934359
sg27
F0.03776
ssS'CHRISTODOULOU DIOMEDES'
p302
(dp303
g3
g5
sg4
g5
sg6
F0.0
sg7
g5
sg8
I00
sg9
g5
sg10
S'diomedes.christodoulou@enron.com'
p304
sg12
g5
sg13
g5
sg14
F0.0
sg15
g5
sg16
g5
sg17
g5
sg18
g5
sg19
F0.0
sg20
F0.0
sg21
F0.12376
sg22
g5
sg23
g5
sg24
I950730
sg25
F0.0
sg26
g5
sg27
F0.14927
ssS'ALLEN PHILLIP K'
p305
(dp306
g3
I2902
sg4
I2869717
sg6
F0.0162
sg7
I13868
sg8
I00
sg9
I-3081055
sg10
S'phillip.allen@enron.com'
p307
sg12
I304805
sg13
I-126027
sg14
F0.25485
sg15
g5
sg16
I2195
sg17
I152
sg18
g5
sg19
F0.59643
sg20
F0.02961
sg21
F0.03522
sg22
I47
sg23
I65
sg24
I126027
sg25
F0.18174
sg26
I4484442
sg27
F0.05035
ssS'SHARP VICTORIA T'
p308
(dp309
g3
I3136
sg4
I187469
sg6
F0.00765
sg7
I116337
sg8
I00
sg9
g5
sg10
S'vicki.sharp@enron.com'
p310
sg12
I422158
sg13
g5
sg14
F0.44865
sg15
g5
sg16
I136
sg17
I2401
sg18
g5
sg19
F0.08571
sg20
F0.04412
sg21
F0.01006
sg22
I24
sg23
I6
sg24
I213063
sg25
F0.2233
sg26
I1576511
sg27
F0.00818
ssS'JAEDICKE ROBERT'
p311
(dp312
g3
g5
sg4
g5
sg6
F0.0
sg7
g5
sg8
I00
sg9
I-25000
sg10
g5
sg12
g5
sg13
I-44093
sg14
F0.0
sg15
g5
sg16
g5
sg17
g5
sg18
I108750
sg19
F0.0
sg20
F0.0
sg21
F0.00879
sg22
g5
sg23
g5
sg24
I44093
sg25
F0.0
sg26
I83750
sg27
F0.01257
ssS'WINOKUR JR. HERBERT S'
p313
(dp314
g3
g5
sg4
g5
sg6
F0.0
sg7
I1413
sg8
I00
sg9
I-25000
sg10
g5
sg12
g5
sg13
g5
sg14
F0.0
sg15
g5
sg16
g5
sg17
g5
sg18
I108579
sg19
F0.0
sg20
F0.0
sg21
F0.0
sg22
g5
sg23
g5
sg24
g5
sg25
F0.0
sg26
I84992
sg27
F0.0
ssS'BROWN MICHAEL'
p315
(dp316
g3
I1486
sg4
g5
sg6
F0.00875
sg7
I49288
sg8
I00
sg9
g5
sg10
S'michael.brown@enron.com'
p317
sg12
g5
sg13
g5
sg14
F0.13784
sg15
g5
sg16
I41
sg17
g5
sg18
g5
sg19
F0.0
sg20
F0.02439
sg21
F0.0
sg22
I13
sg23
I1
sg24
g5
sg25
F0.0
sg26
I49288
sg27
F0.0
ssS'BADUM JAMES P'
p318
(dp319
g3
g5
sg4
I178980
sg6
F0.0
sg7
I3486
sg8
I00
sg9
g5
sg10
g5
sg12
g5
sg13
g5
sg14
F0.0
sg15
g5
sg16
g5
sg17
g5
sg18
g5
sg19
F0.0
sg20
F0.0
sg21
F0.00525
sg22
g5
sg23
g5
sg24
g5
sg25
F0.0
sg26
I182466
sg27
F0.00751
ssS'HUGHES JAMES A'
p320
(dp321
g3
I719
sg4
g5
sg6
F0.04868
sg7
g5
sg8
I00
sg9
g5
sg10
S'james.hughes@enron.com'
p322
sg12
g5
sg13
g5
sg14
F0.10668
sg15
g5
sg16
I34
sg17
g5
sg18
g5
sg19
F0.0
sg20
F0.14706
sg21
F0.02277
sg22
I35
sg23
I5
sg24
I363428
sg25
F0.0
sg26
g5
sg27
F0.02198
ssS'REYNOLDS LAWRENCE'
p323
(dp324
g3
g5
sg4
I51365
sg6
F0.0
sg7
I8409
sg8
I00
sg9
I-200000
sg10
g5
sg12
I156250
sg13
I-140264
sg14
F0.0
sg15
g5
sg16
g5
sg17
I202052
sg18
g5
sg19
F0.01429
sg20
F0.0
sg21
F0.08597
sg22
g5
sg23
g5
sg24
I201483
sg25
F0.06875
sg26
I394475
sg27
F0.12113
ssS'DIMICHELE RICHARD G'
p325
(dp326
g3
g5
sg4
g5
sg6
F0.0
sg7
I35812
sg8
I00
sg9
g5
sg10
S'richard.dimichele@enron.com'
p327
sg12
I694862
sg13
g5
sg14
F0.0
sg15
g5
sg16
g5
sg17
I374689
sg18
g5
sg19
F0.14286
sg20
F0.0
sg21
F0.16937
sg22
g5
sg23
g5
sg24
I126027
sg25
F0.23648
sg26
I2368151
sg27
F0.23849
ssS'BHATNAGAR SANJAY'
p328
(dp329
g3
I523
sg4
g89
sg6
F0.0
sg7
I137864
sg8
I00
sg9
g89
sg10
S'sanjay.bhatnagar@enron.com'
p330
sg12
g89
sg13
I-2604490
sg14
F0.08386
sg15
g89
sg16
I29
sg17
g89
sg18
g89
sg19
F0.0
sg20
F0.03448
sS'total_stock_value'
p331
F0.31473
sg22
I0
sg23
I1
sg24
I2604490
sg25
F0.0
sg26
I137864
sg27
F0.44999
ssS'CARTER REBECCA C'
p332
(dp333
g3
I312
sg4
g5
sg6
F0.09295
sg7
g5
sg8
I00
sg9
I-159792
sg10
S'rebecca.carter@enron.com'
p334
sg12
I75000
sg13
I-307301
sg14
F0.0355
sg15
g5
sg16
I15
sg17
I540
sg18
g5
sg19
F0.04286
sg20
F0.46667
sg21
F0.0
sg22
I29
sg23
I7
sg24
I307301
sg25
F0.2356
sg26
I477557
sg27
F0.0
ssS'BUCHANAN HAROLD G'
p335
(dp336
g3
I1088
sg4
g5
sg6
F0.0
sg7
I600
sg8
I00
sg9
g5
sg10
S'john.buchanan@enron.com'
p337
sg12
I304805
sg13
g5
sg14
F0.00417
sg15
g5
sg16
I125
sg17
I1215
sg18
g5
sg19
F0.07143
sg20
F0.0
sg21
F0.02066
sg22
I0
sg23
I0
sg24
I189041
sg25
F0.22319
sg26
I1054637
sg27
F0.02403
ssS'YEAP SOON'
p338
(dp339
g3
g5
sg4
g5
sg6
F0.0
sg7
I55097
sg8
I00
sg9
g5
sg10
g5
sg12
g5
sg13
g5
sg14
F0.0
sg15
g5
sg16
g5
sg17
g5
sg18
g5
sg19
F0.0
sg20
F0.0
sg21
F0.00393
sg22
g5
sg23
g5
sg24
g5
sg25
F0.0
sg26
I55097
sg27
F0.00561
ssS'MURRAY JULIA H'
p340
(dp341
g3
I2192
sg4
g5
sg6
F0.00502
sg7
I57580
sg8
I00
sg9
g5
sg10
S'julia.murray@enron.com'
p342
sg12
I125000
sg13
g5
sg14
F0.07155
sg15
g5
sg16
I45
sg17
I330
sg18
g5
sg19
F0.05714
sg20
F0.04444
sg21
F0.01217
sg22
I11
sg23
I2
sg24
I196983
sg25
F0.20633
sg26
I812194
sg27
F0.01166
ssS'GARLAND C KEVIN'
p343
(dp344
g3
I209
sg4
g5
sg6
F0.04785
sg7
I48405
sg8
I00
sg9
g5
sg10
S'kevin.garland@enron.com'
p345
sg12
I375304
sg13
g5
sg14
F0.03224
sg15
g5
sg16
I44
sg17
I60814
sg18
g5
sg19
F0.12143
sg20
F0.61364
sg21
F0.01825
sg22
I10
sg23
I27
sg24
I259907
sg25
F0.20872
sg26
I1566469
sg27
F0.01852
ssS'DODSON KEITH'
p346
(dp347
g3
I176
sg4
g5
sg6
F0.05682
sg7
I28164
sg8
I00
sg9
g5
sg10
S'keith.dodson@enron.com'
p348
sg12
g5
sg13
g5
sg14
F0.02065
sg15
g5
sg16
I14
sg17
I774
sg18
g5
sg19
F0.01
sg20
F0.21429
sg21
F0.0
sg22
I10
sg23
I3
sg24
g5
sg25
F0.19888
sg26
I319941
sg27
F0.0
ssS'YEAGER F SCOTT'
p349
(dp350
g3
g5
sg4
g5
sg6
F0.0
sg7
I53947
sg8
I01
sg9
g5
sg10
S'scott.yeager@enron.com'
p351
sg12
g5
sg13
g5
sg14
F0.0
sg15
g5
sg16
g5
sg17
I147950
sg18
g5
sg19
F0.0
sg20
F0.0
sg21
F0.242
sg22
g5
sg23
g5
sg24
I3576206
sg25
F0.14254
sg26
I360300
sg27
F0.24189
ssS'HIRKO JOSEPH'
p352
(dp353
g3
g5
sg4
I10259
sg6
F0.0
sg7
I77978
sg8
I01
sg9
g5
sg10
S'joe.hirko@enron.com'
p354
sg12
g5
sg13
g5
sg14
F0.0
sg15
g5
sg16
g5
sg17
I2856
sg18
g5
sg19
F0.0
sg20
F0.0
sg21
F0.62647
sg22
g5
sg23
g5
sg24
g5
sg25
F0.0
sg26
I91093
sg27
F0.89571
ssS'DIETRICH JANET R'
p355
(dp356
g3
I2572
sg4
g5
sg6
F0.11858
sg7
I3475
sg8
I00
sg9
g5
sg10
S'janet.dietrich@enron.com'
p357
sg12
I556416
sg13
g5
sg14
F0.3445
sg15
g5
sg16
I63
sg17
I473
sg18
g5
sg19
F0.08571
sg20
F0.22222
sg21
F0.03798
sg22
I305
sg23
I14
sg24
I315068
sg25
F0.22506
sg26
I1410464
sg27
F0.04513
ssS'DERRICK JR. JAMES V'
p358
(dp359
g3
I2181
sg4
g5
sg6
F0.02934
sg7
I51124
sg8
I00
sg9
I-1284000
sg10
S'james.derrick@enron.com'
p360
sg12
I484000
sg13
I-1787380
sg14
F0.25376
sg15
g5
sg16
I909
sg17
I7482
sg18
g5
sg19
F0.11429
sg20
F0.022
sg21
F0.17984
sg22
I64
sg23
I20
sg24
I1787380
sg25
F0.44308
sg26
I550981
sg27
F0.25713
ssS'BAY FRANKLIN R'
p361
(dp362
g3
g5
sg4
I260455
sg6
F0.0
sg7
I129142
sg8
I00
sg9
I-201641
sg10
S'frank.bay@enron.com'
p363
sg12
g5
sg13
I-82782
sg14
F0.0
sg15
g5
sg16
g5
sg17
I69
sg18
g5
sg19
F0.05714
sg20
F0.0
sg21
F0.00128
sg22
g5
sg23
g5
sg24
I145796
sg25
F0.21568
sg26
I827696
sg27
F0.0
ssS'HAYSLETT RODERICK J'
p364
(dp365
g3
I2649
sg4
g5
sg6
F0.01321
sg7
g5
sg8
I00
sg9
g5
sg10
S'rod.hayslett@enron.com'
p366
sg12
g5
sg13
g5
sg14
F0.10342
sg15
g5
sg16
I1061
sg17
g5
sg18
g5
sg19
F0.0
sg20
F0.03582
sg21
F0.00706
sg22
I35
sg23
I38
sg24
I346663
sg25
F0.0
sg26
g5
sg27
F0.0
ssS'FUGH JOHN L'
p367
(dp368
g3
g5
sg4
I50591
sg6
F0.0
sg7
g5
sg8
I00
sg9
g5
sg10
g5
sg12
g5
sg13
g5
sg14
F0.0
sg15
g5
sg16
g5
sg17
g5
sg18
g5
sg19
F0.0
sg20
F0.0
sg21
F0.00359
sg22
g5
sg23
g5
sg24
g5
sg25
F0.0
sg26
I50591
sg27
F0.00513
ssS'FALLON JAMES B'
p369
(dp370
g3
I1755
sg4
g5
sg6
F0.02393
sg7
I95924
sg8
I00
sg9
g5
sg10
S'jim.fallon@enron.com'
p371
sg12
I374347
sg13
g5
sg14
F0.29053
sg15
g5
sg16
I75
sg17
I401481
sg18
g5
sg19
F0.35714
sg20
F0.49333
sg21
F0.04749
sg22
I42
sg23
I37
sg24
I1392142
sg25
F0.27409
sg26
I3676340
sg27
F0.02737
ssS'KOENIG MARK E'
p372
(dp373
g3
I2374
sg4
g5
sg6
F0.02233
sg7
I127017
sg8
I01
sg9
g5
sg10
S'mark.koenig@enron.com'
p374
sg12
I300000
sg13
g5
sg14
F0.41134
sg15
g5
sg16
I61
sg17
I150458
sg18
g5
sg19
F0.1
sg20
F0.2459
sg21
F0.0391
sg22
I53
sg23
I15
sg24
I1248318
sg25
F0.27891
sg26
I1587421
sg27
F0.01956
ssS'SAVAGE FRANK'
p375
(dp376
g3
g5
sg4
g5
sg6
F0.0
sg7
g5
sg8
I00
sg9
I-121284
sg10
g5
sg12
g5
sg13
g5
sg14
F0.0
sg15
g5
sg16
g5
sg17
g5
sg18
I125034
sg19
F0.0
sg20
F0.0
sg21
F0.0
sg22
g5
sg23
g5
sg24
g5
sg25
F0.0
sg26
I3750
sg27
F0.0
ssS'IZZO LAWRENCE L'
p377
(dp378
g3
I496
sg4
g5
sg6
F0.05645
sg7
I28093
sg8
I00
sg9
g5
sg10
S'larry.izzo@enron.com'
p379
sg12
I312500
sg13
g5
sg14
F0.07915
sg15
g5
sg16
I19
sg17
I1553729
sg18
g5
sg19
F0.0
sg20
F0.26316
sg21
F0.11851
sg22
I28
sg23
I5
sg24
I3654808
sg25
F0.07674
sg26
I1979596
sg27
F0.06304
ssS'TILNEY ELIZABETH A'
p380
(dp381
g3
I460
sg4
g5
sg6
F0.02174
sg7
g5
sg8
I00
sg9
I-575000
sg10
S'elizabeth.tilney@enron.com'
p382
sg12
I275000
sg13
g5
sg14
F0.06865
sg15
g5
sg16
I19
sg17
I152055
sg18
g5
sg19
F0.04286
sg20
F0.57895
sg21
F0.02378
sg22
I10
sg23
I11
sg24
I576792
sg25
F0.22257
sg26
I399393
sg27
F0.01721
ssS'MARTIN AMANDA K'
p383
(dp384
g3
I1522
sg4
I85430
sg6
F0.00526
sg7
I8211
sg8
I00
sg9
g5
sg10
S'a..martin@enron.com'
p385
sg12
I5145434
sg13
g5
sg14
F0.0864
sg15
g5
sg16
I230
sg17
I2818454
sg18
g5
sg19
F0.0
sg20
F0.0
sg21
F0.04216
sg22
I8
sg23
I0
sg24
g5
sg25
F0.3145
sg26
I8407016
sg27
F0.06027
ssS'BUY RICHARD B'
p386
(dp387
g3
I3523
sg4
I649584
sg6
F0.04428
sg7
g5
sg8
I00
sg9
I-694862
sg10
S'rick.buy@enron.com'
p388
sg12
I769862
sg13
g5
sg14
F0.42257
sg15
g5
sg16
I1053
sg17
I400572
sg18
g5
sg19
F0.12857
sg20
F0.06743
sg21
F0.07014
sg22
I156
sg23
I71
sg24
I901657
sg25
F0.29745
sg26
I2355702
sg27
F0.07403
ssS'GRAMM WENDY L'
p389
(dp390
g3
g5
sg4
g5
sg6
F0.0
sg7
g5
sg8
I00
sg9
g5
sg10
g5
sg12
g5
sg13
g5
sg14
F0.0
sg15
g5
sg16
g5
sg17
g5
sg18
I119292
sg19
F0.0
sg20
F0.0
sg21
F0.0
sg22
g5
sg23
g5
sg24
g5
sg25
F0.0
sg26
I119292
sg27
F0.0
ssS'CAUSEY RICHARD A'
p391
(dp392
g3
I1892
sg4
g5
sg6
F0.03066
sg7
I30674
sg8
I01
sg9
I-235000
sg10
S'richard.causey@enron.com'
p393
sg12
I350000
sg13
g5
sg14
F0.28709
sg15
g5
sg16
I49
sg17
I307895
sg18
g5
sg19
F0.14286
sg20
F0.2449
sg21
F0.05095
sg22
I58
sg23
I12
sg24
I2502063
sg25
F0.37362
sg26
I1868758
sg27
F0.0
ssS'TAYLOR MITCHELL S'
p394
(dp395
g3
I533
sg4
I227449
sg6
F0.0
sg7
g5
sg8
I00
sg9
g5
sg10
S'mitchell.taylor@enron.com'
p396
sg12
g5
sg13
g5
sg14
F0.05434
sg15
g5
sg16
I29
sg17
g5
sg18
g5
sg19
F0.08571
sg20
F0.0
sg21
F0.07626
sg22
I0
sg23
I0
sg24
I563798
sg25
F0.23866
sg26
I1092663
sg27
F0.09262
ssS'DONAHUE JR JEFFREY M'
p397
(dp398
g3
I865
sg4
g5
sg6
F0.21734
sg7
I96268
sg8
I00
sg9
I-300000
sg10
S'jeff.donahue@enron.com'
p399
sg12
g5
sg13
g5
sg14
F0.13983
sg15
g5
sg16
I22
sg17
I891
sg18
g5
sg19
F0.11429
sg20
F0.5
sg21
F0.02201
sg22
I188
sg23
I11
sg24
I315068
sg25
F0.25071
sg26
I875760
sg27
F0.0223
ssS'GLISAN JR BEN F'
p400
(dp401
g3
I873
sg4
g5
sg6
F0.05956
sg7
I125978
sg8
I01
sg9
g5
sg10
S'ben.glisan@enron.com'
p402
sg12
I71023
sg13
g5
sg14
F0.1583
sg15
g5
sg16
I16
sg17
I200308
sg18
g5
sg19
F0.08571
sg20
F0.375
sg21
F0.01585
sg22
I52
sg23
I6
sg24
I393818
sg25
F0.24744
sg26
I1272284
sg27
F0.0112
ss.